target datalayout = "e-m:e-p270:32:32-p271:32:32-p272:64:64-i64:64-i128:128-f80:128-n8:16:32:64-S128"
target triple = "x86_64-pc-linux-gnu"

@stderr = external global ptr, align 8
@.str.1 = private unnamed_addr constant [2 x i8] c"-\00", align 1
@.str.2 = private unnamed_addr constant [3 x i8] c"rb\00", align 1
@.str.3 = private unnamed_addr constant [29 x i8] c"cannot open input file '%s'\0A\00", align 1
@.str.4 = private unnamed_addr constant [28 x i8] c"error getting size of '%s'\0A\00", align 1
@.str.5 = private unnamed_addr constant [48 x i8] c"memory allocation failure when reading file %s\0A\00", align 1
@.str.6 = private unnamed_addr constant [46 x i8] c"Could not read %d bytes of data from file %s\0A\00", align 1

; Function Attrs: nounwind uwtable
define hidden i32 @ImgIoUtilReadFile(ptr noundef %0, ptr noundef %1, ptr noundef %2) #0 {
  %4 = alloca i32, align 4
  %5 = alloca ptr, align 8
  %6 = alloca ptr, align 8
  %7 = alloca ptr, align 8
  %8 = alloca i32, align 4
  %9 = alloca ptr, align 8
  %10 = alloca i64, align 8
  %11 = alloca ptr, align 8
  %12 = alloca i32, align 4
  store ptr %0, ptr %5, align 8
  store ptr %1, ptr %6, align 8
  store ptr %2, ptr %7, align 8
  %13 = load ptr, ptr %5, align 8
  %14 = icmp eq ptr %13, null
  br i1 %14, label %20, label %15

15:                                               ; preds = %3
  %16 = load ptr, ptr %5, align 8
  %17 = call i32 @strcmp(ptr noundef %16, ptr noundef @.str.1) #8
  %18 = icmp ne i32 %17, 0
  %19 = xor i1 %18, true
  br label %20

20:                                               ; preds = %15, %3
  %21 = phi i1 [ true, %3 ], [ %19, %15 ]
  %22 = zext i1 %21 to i32
  store i32 %22, ptr %12, align 4
  %23 = load i32, ptr %12, align 4
  %24 = icmp ne i32 %23, 0
  br i1 %24, label %25, label %29

25:                                               ; preds = %20
  %26 = load ptr, ptr %6, align 8
  %27 = load ptr, ptr %7, align 8
  %28 = call i32 @ImgIoUtilReadFromStdin(ptr noundef %26, ptr noundef %27)
  store i32 %28, ptr %4, align 4
  br label %100

29:                                               ; preds = %20
  %30 = load ptr, ptr %6, align 8
  %31 = icmp eq ptr %30, null
  br i1 %31, label %35, label %32

32:                                               ; preds = %29
  %33 = load ptr, ptr %7, align 8
  %34 = icmp eq ptr %33, null
  br i1 %34, label %35, label %36

35:                                               ; preds = %32, %29
  store i32 0, ptr %4, align 4
  br label %100

36:                                               ; preds = %32
  %37 = load ptr, ptr %6, align 8
  store ptr null, ptr %37, align 8
  %38 = load ptr, ptr %7, align 8
  store i64 0, ptr %38, align 8
  %39 = load ptr, ptr %5, align 8
  %40 = call noalias ptr @fopen(ptr noundef %39, ptr noundef @.str.2)
  store ptr %40, ptr %11, align 8
  %41 = load ptr, ptr %11, align 8
  %42 = icmp eq ptr %41, null
  br i1 %42, label %43, label %47

43:                                               ; preds = %36
  %44 = load ptr, ptr @stderr, align 8
  %45 = load ptr, ptr %5, align 8
  %46 = call i32 (ptr, ptr, ...) @fprintf(ptr noundef %44, ptr noundef @.str.3, ptr noundef %45) #6
  store i32 0, ptr %4, align 4
  br label %100

47:                                               ; preds = %36
  %48 = load ptr, ptr %11, align 8
  %49 = call i32 @fseek(ptr noundef %48, i64 noundef 0, i32 noundef 2)
  %50 = load ptr, ptr %11, align 8
  %51 = call i64 @ftell(ptr noundef %50)
  store i64 %51, ptr %10, align 8
  %52 = load i64, ptr %10, align 8
  %53 = icmp eq i64 %52, -1
  br i1 %53, label %54, label %60

54:                                               ; preds = %47
  %55 = load ptr, ptr %11, align 8
  %56 = call i32 @fclose(ptr noundef %55)
  %57 = load ptr, ptr @stderr, align 8
  %58 = load ptr, ptr %5, align 8
  %59 = call i32 (ptr, ptr, ...) @fprintf(ptr noundef %57, ptr noundef @.str.4, ptr noundef %58) #6
  store i32 0, ptr %4, align 4
  br label %100

60:                                               ; preds = %47
  %61 = load ptr, ptr %11, align 8
  %62 = call i32 @fseek(ptr noundef %61, i64 noundef 0, i32 noundef 0)
  %63 = load i64, ptr %10, align 8
  %64 = add i64 %63, 1
  %65 = call ptr @WebPMalloc(i64 noundef %64)
  store ptr %65, ptr %9, align 8
  %66 = load ptr, ptr %9, align 8
  %67 = icmp eq ptr %66, null
  br i1 %67, label %68, label %74

68:                                               ; preds = %60
  %69 = load ptr, ptr %11, align 8
  %70 = call i32 @fclose(ptr noundef %69)
  %71 = load ptr, ptr @stderr, align 8
  %72 = load ptr, ptr %5, align 8
  %73 = call i32 (ptr, ptr, ...) @fprintf(ptr noundef %71, ptr noundef @.str.5, ptr noundef %72) #6
  store i32 0, ptr %4, align 4
  br label %100

74:                                               ; preds = %60
  %75 = load ptr, ptr %9, align 8
  %76 = load i64, ptr %10, align 8
  %77 = load ptr, ptr %11, align 8
  %78 = call i64 @fread(ptr noundef %75, i64 noundef %76, i64 noundef 1, ptr noundef %77)
  %79 = icmp eq i64 %78, 1
  %80 = zext i1 %79 to i32
  store i32 %80, ptr %8, align 4
  %81 = load ptr, ptr %11, align 8
  %82 = call i32 @fclose(ptr noundef %81)
  %83 = load i32, ptr %8, align 4
  %84 = icmp ne i32 %83, 0
  br i1 %84, label %92, label %85

85:                                               ; preds = %74
  %86 = load ptr, ptr @stderr, align 8
  %87 = load i64, ptr %10, align 8
  %88 = trunc i64 %87 to i32
  %89 = load ptr, ptr %5, align 8
  %90 = call i32 (ptr, ptr, ...) @fprintf(ptr noundef %86, ptr noundef @.str.6, i32 noundef %88, ptr noundef %89) #6
  %91 = load ptr, ptr %9, align 8
  call void @WebPFree(ptr noundef %91)
  store i32 0, ptr %4, align 4
  br label %100

92:                                               ; preds = %74
  %93 = load ptr, ptr %9, align 8
  %94 = load i64, ptr %10, align 8
  %95 = getelementptr inbounds i8, ptr %93, i64 %94
  store i8 0, ptr %95, align 1
  %96 = load ptr, ptr %9, align 8
  %97 = load ptr, ptr %6, align 8
  store ptr %96, ptr %97, align 8
  %98 = load i64, ptr %10, align 8
  %99 = load ptr, ptr %7, align 8
  store i64 %98, ptr %99, align 8
  store i32 1, ptr %4, align 4
  br label %100

100:                                              ; preds = %92, %85, %68, %54, %43, %35, %25
  %101 = load i32, ptr %4, align 4
  ret i32 %101
}