; Function Attrs: nounwind uwtable
define hidden range(i32 0, 2) i32 @ImgIoUtilReadFile(ptr noundef %0, ptr noundef %1, ptr noundef %2) local_unnamed_addr #1 {
  %4 = icmp eq ptr %0, null
  br i1 %4, label %.critedge, label %sub_0

sub_0:                                            ; preds = %3
  %5 = load i8, ptr %0, align 1
  %.not43 = icmp eq i8 %5, 45
  br i1 %.not43, label %.tail, label %.tail.thread

.tail:                                            ; preds = %sub_0
  %6 = getelementptr inbounds nuw i8, ptr %0, i64 1
  %7 = load i8, ptr %6, align 1
  %8 = icmp eq i8 %7, 0
  br i1 %8, label %.critedge, label %.tail.thread

.critedge:                                        ; preds = %3, %.tail
  %9 = tail call i32 @ImgIoUtilReadFromStdin(ptr noundef %1, ptr noundef %2)
  br label %45

.tail.thread:                                     ; preds = %sub_0, %.tail
  %10 = icmp eq ptr %1, null
  %11 = icmp eq ptr %2, null
  %or.cond = or i1 %10, %11
  br i1 %or.cond, label %45, label %12

12:                                               ; preds = %.tail.thread
  store ptr null, ptr %1, align 8
  store i64 0, ptr %2, align 8
  %13 = tail call noalias ptr @fopen(ptr noundef nonnull %0, ptr noundef nonnull @.str.2)
  %14 = icmp eq ptr %13, null
  br i1 %14, label %15, label %18

15:                                               ; preds = %12
  %16 = load ptr, ptr @stderr, align 8
  %17 = tail call i32 (ptr, ptr, ...) @fprintf(ptr noundef %16, ptr noundef nonnull @.str.3, ptr noundef nonnull %0) #13
  br label %45

18:                                               ; preds = %12
  %19 = tail call i32 @fseek(ptr noundef nonnull %13, i64 noundef 0, i32 noundef 2)
  %20 = tail call i64 @ftell(ptr noundef nonnull %13)
  %21 = icmp eq i64 %20, -1
  br i1 %21, label %22, label %26

22:                                               ; preds = %18
  %23 = tail call i32 @fclose(ptr noundef nonnull %13)
  %24 = load ptr, ptr @stderr, align 8
  %25 = tail call i32 (ptr, ptr, ...) @fprintf(ptr noundef %24, ptr noundef nonnull @.str.4, ptr noundef nonnull %0) #13
  br label %45

26:                                               ; preds = %18
  %27 = tail call i32 @fseek(ptr noundef nonnull %13, i64 noundef 0, i32 noundef 0)
  %28 = add nuw i64 %20, 1
  %29 = tail call ptr @WebPMalloc(i64 noundef %28) #10
  %30 = icmp eq ptr %29, null
  br i1 %30, label %31, label %35

31:                                               ; preds = %26
  %32 = tail call i32 @fclose(ptr noundef nonnull %13)
  %33 = load ptr, ptr @stderr, align 8
  %34 = tail call i32 (ptr, ptr, ...) @fprintf(ptr noundef %33, ptr noundef nonnull @.str.5, ptr noundef nonnull %0) #13
  br label %45

35:                                               ; preds = %26
  %36 = tail call i64 @fread(ptr noundef nonnull %29, i64 noundef %20, i64 noundef 1, ptr noundef nonnull %13)
  %37 = icmp eq i64 %36, 1
  %38 = tail call i32 @fclose(ptr noundef nonnull %13)
  br i1 %37, label %43, label %39

39:                                               ; preds = %35
  %40 = load ptr, ptr @stderr, align 8
  %41 = trunc i64 %20 to i32
  %42 = tail call i32 (ptr, ptr, ...) @fprintf(ptr noundef %40, ptr noundef nonnull @.str.6, i32 noundef %41, ptr noundef nonnull %0) #13
  tail call void @WebPFree(ptr noundef nonnull %29) #10
  br label %45

43:                                               ; preds = %35
  %44 = getelementptr inbounds i8, ptr %29, i64 %20
  store i8 0, ptr %44, align 1
  store ptr %29, ptr %1, align 8
  store i64 %20, ptr %2, align 8
  br label %45

45:                                               ; preds = %.tail.thread, %43, %39, %31, %22, %15, %.critedge
  %.0 = phi i32 [ %9, %.critedge ], [ 0, %15 ], [ 0, %22 ], [ 0, %31 ], [ 1, %43 ], [ 0, %39 ], [ 0, %.tail.thread ]
  ret i32 %.0
}